---
triple:          'arm64-apple-darwin'
binary-path:     '/Users/varshu/projects/helloworld/helloworld'
relocations:
  - { offset: 0x460D, size: 0x8, addend: 0x0, symName: __ZNSt3__124__put_character_sequenceB8ne190104IcNS_11char_traitsIcEEEERNS_13basic_ostreamIT_T0_EES7_PKS4_m, symObjAddr: 0x1E48, symBinAddr: 0x100006F10, symSize: 0x1E4 }
  - { offset: 0x56E8, size: 0x8, addend: 0x0, symName: __ZNSt3__1neB8ne190104IPNS_12basic_stringIcNS_11char_traitsIcEENS_9allocatorIcEEEEEEbRKNS_11__wrap_iterIT_EESC_, symObjAddr: 0x3A0, symBinAddr: 0x100005468, symSize: 0x30 }
  - { offset: 0x572B, size: 0x8, addend: 0x0, symName: __ZNSt3__1lsB8ne190104INS_11char_traitsIcEEEERNS_13basic_ostreamIcT_EES6_PKc, symObjAddr: 0x3E8, symBinAddr: 0x1000054B0, symSize: 0x48 }
  - { offset: 0x5771, size: 0x8, addend: 0x0, symName: __ZNSt3__1lsB8ne190104IcNS_11char_traitsIcEENS_9allocatorIcEEEERNS_13basic_ostreamIT_T0_EES9_RKNS_12basic_stringIS6_S7_T1_EE, symObjAddr: 0x430, symBinAddr: 0x1000054F8, symSize: 0x4C }
  - { offset: 0x57C9, size: 0x8, addend: 0x0, symName: __ZNSt3__14endlB8ne190104IcNS_11char_traitsIcEEEERNS_13basic_ostreamIT_T0_EES7_, symObjAddr: 0x4C8, symBinAddr: 0x100005590, symSize: 0x54 }
  - { offset: 0x5809, size: 0x8, addend: 0x0, symName: __ZNSt3__1eqB8ne190104IPNS_12basic_stringIcNS_11char_traitsIcEENS_9allocatorIcEEEEEEbRKNS_11__wrap_iterIT_EESC_, symObjAddr: 0x548, symBinAddr: 0x100005610, symSize: 0x44 }
  - { offset: 0x584C, size: 0x8, addend: 0x0, symName: __ZNSt3__118__constexpr_strlenB8ne190104IcEEmPKT_, symObjAddr: 0x718, symBinAddr: 0x1000057E0, symSize: 0x24 }
  - { offset: 0x5881, size: 0x8, addend: 0x0, symName: __ZNSt3__122__make_exception_guardB8ne190104INS_6vectorINS_12basic_stringIcNS_11char_traitsIcEENS_9allocatorIcEEEENS5_IS7_EEE16__destroy_vectorEEENS_28__exception_guard_exceptionsIT_EESC_, symObjAddr: 0x894, symBinAddr: 0x10000595C, symSize: 0x40 }
  - { offset: 0x58B6, size: 0x8, addend: 0x0, symName: __ZNSt3__119__allocate_at_leastB8ne190104INS_9allocatorINS_12basic_stringIcNS_11char_traitsIcEENS1_IcEEEEEEEENS_19__allocation_resultINS_16allocator_traitsIT_E7pointerEEERSA_m, symObjAddr: 0xCA0, symBinAddr: 0x100005D68, symSize: 0x40 }
  - { offset: 0x58F9, size: 0x8, addend: 0x0, symName: __ZNSt3__13minB8ne190104ImEERKT_S3_S3_, symObjAddr: 0xD44, symBinAddr: 0x100005E0C, symSize: 0x2C }
  - { offset: 0x5B3D, size: 0x8, addend: 0x0, symName: __ZNSt3__13minB8ne190104ImNS_6__lessIvvEEEERKT_S5_S5_T0_, symObjAddr: 0xDE0, symBinAddr: 0x100005EA8, symSize: 0x54 }
  - { offset: 0x5BDC, size: 0x8, addend: 0x0, symName: __ZNSt3__120__throw_length_errorB8ne190104EPKc, symObjAddr: 0xEBC, symBinAddr: 0x100005F84, symSize: 0x64 }
  - { offset: 0x5C04, size: 0x8, addend: 0x0, symName: __ZNSt3__117__libcpp_allocateB8ne190104Emm, symObjAddr: 0x1024, symBinAddr: 0x1000060EC, symSize: 0x28 }
  - { offset: 0x5C41, size: 0x8, addend: 0x0, symName: __ZNSt3__121__libcpp_operator_newB8ne190104IJmEEEPvDpT_, symObjAddr: 0x104C, symBinAddr: 0x100006114, symSize: 0x24 }
  - { offset: 0x5C7A, size: 0x8, addend: 0x0, symName: __ZNSt3__130__uninitialized_allocator_copyB8ne190104INS_9allocatorINS_12basic_stringIcNS_11char_traitsIcEENS1_IcEEEEEEPKS6_S9_PS6_EET2_RT_T0_T1_SB_, symObjAddr: 0x111C, symBinAddr: 0x1000061E4, symSize: 0x80 }
  - { offset: 0x5D17, size: 0x8, addend: 0x0, symName: __ZNSt3__114__unwrap_rangeB8ne190104IPKNS_12basic_stringIcNS_11char_traitsIcEENS_9allocatorIcEEEES8_EENS_4pairIT0_SA_EET_SC_, symObjAddr: 0x1214, symBinAddr: 0x1000062DC, symSize: 0x60 }
  - { offset: 0x5D63, size: 0x8, addend: 0x0, symName: __ZNSt3__135__uninitialized_allocator_copy_implB8ne190104INS_9allocatorINS_12basic_stringIcNS_11char_traitsIcEENS1_IcEEEEEEPKS6_S9_PS6_EET2_RT_T0_T1_SB_, symObjAddr: 0x1274, symBinAddr: 0x10000633C, symSize: 0xF0 }
  - { offset: 0x5E01, size: 0x8, addend: 0x0, symName: __ZNSt3__113__unwrap_iterB8ne190104IPNS_12basic_stringIcNS_11char_traitsIcEENS_9allocatorIcEEEENS_18__unwrap_iter_implIS7_Lb1EEETnNS_9enable_ifIXsr21is_copy_constructibleIT_EE5valueEiE4typeELi0EEEDTclsrT0_8__unwrapclsr3stdE7declvalISB_EEEESB_, symObjAddr: 0x1364, symBinAddr: 0x10000642C, symSize: 0x24 }
  - { offset: 0x5E45, size: 0x8, addend: 0x0, symName: __ZNSt3__113__rewrap_iterB8ne190104IPNS_12basic_stringIcNS_11char_traitsIcEENS_9allocatorIcEEEES7_NS_18__unwrap_iter_implIS7_Lb1EEEEET_SA_T0_, symObjAddr: 0x1388, symBinAddr: 0x100006450, symSize: 0x3C }
  - { offset: 0x5E9A, size: 0x8, addend: 0x0, symName: __ZNSt3__19make_pairB8ne190104IPKNS_12basic_stringIcNS_11char_traitsIcEENS_9allocatorIcEEEES8_EENS_4pairINS_18__unwrap_ref_decayIT_E4typeENSA_IT0_E4typeEEEOSB_OSE_, symObjAddr: 0x13C4, symBinAddr: 0x10000648C, symSize: 0x38 }
  - { offset: 0x5EE9, size: 0x8, addend: 0x0, symName: __ZNSt3__113__unwrap_iterB8ne190104IPKNS_12basic_stringIcNS_11char_traitsIcEENS_9allocatorIcEEEENS_18__unwrap_iter_implIS8_Lb1EEETnNS_9enable_ifIXsr21is_copy_constructibleIT_EE5valueEiE4typeELi0EEEDTclsrT0_8__unwrapclsr3stdE7declvalISC_EEEESC_, symObjAddr: 0x13FC, symBinAddr: 0x1000064C4, symSize: 0x24 }
  - { offset: 0x6054, size: 0x8, addend: 0x0, symName: __ZNSt3__112__to_addressB8ne190104IKNS_12basic_stringIcNS_11char_traitsIcEENS_9allocatorIcEEEEEEPT_S9_, symObjAddr: 0x14B4, symBinAddr: 0x10000657C, symSize: 0x14 }
  - { offset: 0x6089, size: 0x8, addend: 0x0, symName: __ZNSt3__122__make_exception_guardB8ne190104INS_29_AllocatorDestroyRangeReverseINS_9allocatorINS_12basic_stringIcNS_11char_traitsIcEENS2_IcEEEEEEPS7_EEEENS_28__exception_guard_exceptionsIT_EESC_, symObjAddr: 0x14C8, symBinAddr: 0x100006590, symSize: 0x4C }
  - { offset: 0x60BF, size: 0x8, addend: 0x0, symName: __ZNSt3__112__to_addressB8ne190104INS_12basic_stringIcNS_11char_traitsIcEENS_9allocatorIcEEEEEEPT_S8_, symObjAddr: 0x158C, symBinAddr: 0x100006654, symSize: 0x14 }
  - { offset: 0x60F4, size: 0x8, addend: 0x0, symName: __ZNSt3__119__allocator_destroyB8ne190104INS_9allocatorINS_12basic_stringIcNS_11char_traitsIcEENS1_IcEEEEEENS_16reverse_iteratorIPS6_EESA_EEvRT_T0_T1_, symObjAddr: 0x176C, symBinAddr: 0x100006834, symSize: 0x70 }
  - { offset: 0x6157, size: 0x8, addend: 0x0, symName: __ZNSt3__1neB8ne190104IPNS_12basic_stringIcNS_11char_traitsIcEENS_9allocatorIcEEEES7_EEbRKNS_16reverse_iteratorIT_EERKNS8_IT0_EE, symObjAddr: 0x1810, symBinAddr: 0x1000068D8, symSize: 0x44 }
  - { offset: 0x61A3, size: 0x8, addend: 0x0, symName: __ZNSt3__112__to_addressB8ne190104INS_16reverse_iteratorIPNS_12basic_stringIcNS_11char_traitsIcEENS_9allocatorIcEEEEEETnNS_9enable_ifIXsr4_AndINS_8is_classIT_EENS_15_IsFancyPointerISC_EEEE5valueEiE4typeELi0EEEu7__decayIDTclsr19__to_address_helperISC_EE6__callclsr3stdE7declvalIRKSC_EEEEESJ_, symObjAddr: 0x1880, symBinAddr: 0x100006948, symSize: 0x24 }
  - { offset: 0x625A, size: 0x8, addend: 0x0, symName: __ZNSt3__119__libcpp_deallocateB8ne190104EPvmm, symObjAddr: 0x1C9C, symBinAddr: 0x100006D64, symSize: 0x30 }
  - { offset: 0x62A2, size: 0x8, addend: 0x0, symName: __ZNSt3__127__do_deallocate_handle_sizeB8ne190104IJEEEvPvmDpT_, symObjAddr: 0x1CCC, symBinAddr: 0x100006D94, symSize: 0x2C }
  - { offset: 0x62E0, size: 0x8, addend: 0x0, symName: __ZNSt3__124__libcpp_operator_deleteB8ne190104IJPvmEEEvDpT_, symObjAddr: 0x1CF8, symBinAddr: 0x100006DC0, symSize: 0x2C }
  - { offset: 0x6329, size: 0x8, addend: 0x0, symName: __ZNSt3__116__pad_and_outputB8ne190104IcNS_11char_traitsIcEEEENS_19ostreambuf_iteratorIT_T0_EES6_PKS4_S8_S8_RNS_8ios_baseES4_, symObjAddr: 0x20C4, symBinAddr: 0x10000718C, symSize: 0x214 }
  - { offset: 0x63F8, size: 0x8, addend: 0x0, symName: __ZNSt3__19use_facetB8ne190104INS_5ctypeIcEEEERKT_RKNS_6localeE, symObjAddr: 0x2664, symBinAddr: 0x10000772C, symSize: 0x2C }
  - { offset: 0x68C5, size: 0x8, addend: 0x0, symName: __ZNSt3__112__to_addressB8ne190104IKcEEPT_S3_, symObjAddr: 0x26F8, symBinAddr: 0x1000077C0, symSize: 0x14 }
  - { offset: 0x7791, size: 0x8, addend: 0x0, symName: __ZSt28__throw_bad_array_new_lengthB8ne190104v, symObjAddr: 0xFF0, symBinAddr: 0x1000060B8, symSize: 0x34 }
  - { offset: 0x7D54, size: 0x8, addend: 0x0, symName: _main, symObjAddr: 0x0, symBinAddr: 0x1000050C8, symSize: 0x2D0 }
  - { offset: 0x7DC4, size: 0x8, addend: 0x0, symName: __ZNSt3__112basic_stringIcNS_11char_traitsIcEENS_9allocatorIcEEEC1B8ne190104ILi0EEEPKc, symObjAddr: 0x2D0, symBinAddr: 0x100005398, symSize: 0x34 }
  - { offset: 0x7E01, size: 0x8, addend: 0x0, symName: __ZNSt3__16vectorINS_12basic_stringIcNS_11char_traitsIcEENS_9allocatorIcEEEENS4_IS6_EEEC1B8ne190104ESt16initializer_listIS6_E, symObjAddr: 0x304, symBinAddr: 0x1000053CC, symSize: 0x3C }
  - { offset: 0x7E3A, size: 0x8, addend: 0x0, symName: __ZNSt3__16vectorINS_12basic_stringIcNS_11char_traitsIcEENS_9allocatorIcEEEENS4_IS6_EEE5beginB8ne190104Ev, symObjAddr: 0x340, symBinAddr: 0x100005408, symSize: 0x30 }
  - { offset: 0x7E60, size: 0x8, addend: 0x0, symName: __ZNSt3__16vectorINS_12basic_stringIcNS_11char_traitsIcEENS_9allocatorIcEEEENS4_IS6_EEE3endB8ne190104Ev, symObjAddr: 0x370, symBinAddr: 0x100005438, symSize: 0x30 }
  - { offset: 0x7E86, size: 0x8, addend: 0x0, symName: __ZNKSt3__111__wrap_iterIPNS_12basic_stringIcNS_11char_traitsIcEENS_9allocatorIcEEEEEdeB8ne190104Ev, symObjAddr: 0x3D0, symBinAddr: 0x100005498, symSize: 0x18 }
  - { offset: 0x7EAA, size: 0x8, addend: 0x0, symName: __ZNSt3__111__wrap_iterIPNS_12basic_stringIcNS_11char_traitsIcEENS_9allocatorIcEEEEEppB8ne190104Ev, symObjAddr: 0x47C, symBinAddr: 0x100005544, symSize: 0x20 }
  - { offset: 0x7ECE, size: 0x8, addend: 0x0, symName: __ZNSt3__113basic_ostreamIcNS_11char_traitsIcEEElsB8ne190104EPFRS3_S4_E, symObjAddr: 0x49C, symBinAddr: 0x100005564, symSize: 0x2C }
  - { offset: 0x7F00, size: 0x8, addend: 0x0, symName: __ZNSt3__16vectorINS_12basic_stringIcNS_11char_traitsIcEENS_9allocatorIcEEEENS4_IS6_EEED1B8ne190104Ev, symObjAddr: 0x51C, symBinAddr: 0x1000055E4, symSize: 0x2C }
  - { offset: 0x7F28, size: 0x8, addend: 0x0, symName: __ZNKSt3__111__wrap_iterIPNS_12basic_stringIcNS_11char_traitsIcEENS_9allocatorIcEEEEE4baseB8ne190104Ev, symObjAddr: 0x58C, symBinAddr: 0x100005654, symSize: 0x18 }
  - { offset: 0x7F4C, size: 0x8, addend: 0x0, symName: __ZNSt3__112basic_stringIcNS_11char_traitsIcEENS_9allocatorIcEEEC2B8ne190104ILi0EEEPKc, symObjAddr: 0x5A4, symBinAddr: 0x10000566C, symSize: 0x58 }
  - { offset: 0x7F8E, size: 0x8, addend: 0x0, symName: __ZNSt3__117__compressed_pairINS_12basic_stringIcNS_11char_traitsIcEENS_9allocatorIcEEE5__repES5_EC1B8ne190104INS_18__default_init_tagESA_EEOT_OT0_, symObjAddr: 0x5FC, symBinAddr: 0x1000056C4, symSize: 0x3C }
  - { offset: 0x7FE4, size: 0x8, addend: 0x0, symName: __ZNSt3__111char_traitsIcE6lengthB8ne190104EPKc, symObjAddr: 0x638, symBinAddr: 0x100005700, symSize: 0x24 }
  - { offset: 0x8006, size: 0x8, addend: 0x0, symName: __ZNSt3__117__compressed_pairINS_12basic_stringIcNS_11char_traitsIcEENS_9allocatorIcEEE5__repES5_EC2B8ne190104INS_18__default_init_tagESA_EEOT_OT0_, symObjAddr: 0x65C, symBinAddr: 0x100005724, symSize: 0x3C }
  - { offset: 0x805C, size: 0x8, addend: 0x0, symName: __ZNSt3__122__compressed_pair_elemINS_12basic_stringIcNS_11char_traitsIcEENS_9allocatorIcEEE5__repELi0ELb0EEC2B8ne190104ENS_18__default_init_tagE, symObjAddr: 0x698, symBinAddr: 0x100005760, symSize: 0x14 }
  - { offset: 0x808E, size: 0x8, addend: 0x0, symName: __ZNSt3__122__compressed_pair_elemINS_9allocatorIcEELi1ELb1EEC2B8ne190104ENS_18__default_init_tagE, symObjAddr: 0x6AC, symBinAddr: 0x100005774, symSize: 0x2C }
  - { offset: 0x80C0, size: 0x8, addend: 0x0, symName: __ZNSt3__19allocatorIcEC2B8ne190104Ev, symObjAddr: 0x6D8, symBinAddr: 0x1000057A0, symSize: 0x2C }
  - { offset: 0x80E8, size: 0x8, addend: 0x0, symName: __ZNSt3__116__non_trivial_ifILb1ENS_9allocatorIcEEEC2B8ne190104Ev, symObjAddr: 0x704, symBinAddr: 0x1000057CC, symSize: 0x14 }
  - { offset: 0x8110, size: 0x8, addend: 0x0, symName: __ZNSt3__16vectorINS_12basic_stringIcNS_11char_traitsIcEENS_9allocatorIcEEEENS4_IS6_EEEC2B8ne190104ESt16initializer_listIS6_E, symObjAddr: 0x73C, symBinAddr: 0x100005804, symSize: 0x11C }
  - { offset: 0x8168, size: 0x8, addend: 0x0, symName: __ZNSt3__117__compressed_pairIPNS_12basic_stringIcNS_11char_traitsIcEENS_9allocatorIcEEEENS4_IS6_EEEC1B8ne190104IDnNS_18__default_init_tagEEEOT_OT0_, symObjAddr: 0x858, symBinAddr: 0x100005920, symSize: 0x3C }
  - { offset: 0x81BE, size: 0x8, addend: 0x0, symName: __ZNSt3__16vectorINS_12basic_stringIcNS_11char_traitsIcEENS_9allocatorIcEEEENS4_IS6_EEE16__destroy_vectorC1B8ne190104ERS8_, symObjAddr: 0x8D4, symBinAddr: 0x10000599C, symSize: 0x34 }
  - { offset: 0x81F5, size: 0x8, addend: 0x0, symName: __ZNKSt16initializer_listINSt3__112basic_stringIcNS0_11char_traitsIcEENS0_9allocatorIcEEEEE4sizeB8ne190104Ev, symObjAddr: 0x908, symBinAddr: 0x1000059D0, symSize: 0x18 }
  - { offset: 0x8219, size: 0x8, addend: 0x0, symName: __ZNSt3__16vectorINS_12basic_stringIcNS_11char_traitsIcEENS_9allocatorIcEEEENS4_IS6_EEE11__vallocateB8ne190104Em, symObjAddr: 0x920, symBinAddr: 0x1000059E8, symSize: 0xB0 }
  - { offset: 0x825B, size: 0x8, addend: 0x0, symName: __ZNSt3__16vectorINS_12basic_stringIcNS_11char_traitsIcEENS_9allocatorIcEEEENS4_IS6_EEE18__construct_at_endIPKS6_SB_EEvT_T0_m, symObjAddr: 0x9D0, symBinAddr: 0x100005A98, symSize: 0x8C }
  - { offset: 0x82CD, size: 0x8, addend: 0x0, symName: __ZNKSt16initializer_listINSt3__112basic_stringIcNS0_11char_traitsIcEENS0_9allocatorIcEEEEE5beginB8ne190104Ev, symObjAddr: 0xA5C, symBinAddr: 0x100005B24, symSize: 0x18 }
  - { offset: 0x82F1, size: 0x8, addend: 0x0, symName: __ZNKSt16initializer_listINSt3__112basic_stringIcNS0_11char_traitsIcEENS0_9allocatorIcEEEEE3endB8ne190104Ev, symObjAddr: 0xA74, symBinAddr: 0x100005B3C, symSize: 0x28 }
  - { offset: 0x8315, size: 0x8, addend: 0x0, symName: __ZNSt3__128__exception_guard_exceptionsINS_6vectorINS_12basic_stringIcNS_11char_traitsIcEENS_9allocatorIcEEEENS5_IS7_EEE16__destroy_vectorEE10__completeB8ne190104Ev, symObjAddr: 0xA9C, symBinAddr: 0x100005B64, symSize: 0x1C }
  - { offset: 0x8339, size: 0x8, addend: 0x0, symName: __ZNSt3__128__exception_guard_exceptionsINS_6vectorINS_12basic_stringIcNS_11char_traitsIcEENS_9allocatorIcEEEENS5_IS7_EEE16__destroy_vectorEED1B8ne190104Ev, symObjAddr: 0xAB8, symBinAddr: 0x100005B80, symSize: 0x2C }
  - { offset: 0x8361, size: 0x8, addend: 0x0, symName: __ZNSt3__117__compressed_pairIPNS_12basic_stringIcNS_11char_traitsIcEENS_9allocatorIcEEEENS4_IS6_EEEC2B8ne190104IDnNS_18__default_init_tagEEEOT_OT0_, symObjAddr: 0xAE4, symBinAddr: 0x100005BAC, symSize: 0x40 }
  - { offset: 0x83B7, size: 0x8, addend: 0x0, symName: __ZNSt3__122__compressed_pair_elemIPNS_12basic_stringIcNS_11char_traitsIcEENS_9allocatorIcEEEELi0ELb0EEC2B8ne190104IDnTnNS_9enable_ifIXntsr7is_sameIS8_u7__decayIT_EEE5valueEiE4typeELi0EEEOSB_, symObjAddr: 0xB24, symBinAddr: 0x100005BEC, symSize: 0x1C }
  - { offset: 0x83FC, size: 0x8, addend: 0x0, symName: __ZNSt3__122__compressed_pair_elemINS_9allocatorINS_12basic_stringIcNS_11char_traitsIcEENS1_IcEEEEEELi1ELb1EEC2B8ne190104ENS_18__default_init_tagE, symObjAddr: 0xB40, symBinAddr: 0x100005C08, symSize: 0x2C }
  - { offset: 0x842E, size: 0x8, addend: 0x0, symName: __ZNSt3__19allocatorINS_12basic_stringIcNS_11char_traitsIcEENS0_IcEEEEEC2B8ne190104Ev, symObjAddr: 0xB6C, symBinAddr: 0x100005C34, symSize: 0x2C }
  - { offset: 0x8456, size: 0x8, addend: 0x0, symName: __ZNSt3__116__non_trivial_ifILb1ENS_9allocatorINS_12basic_stringIcNS_11char_traitsIcEENS1_IcEEEEEEEC2B8ne190104Ev, symObjAddr: 0xB98, symBinAddr: 0x100005C60, symSize: 0x14 }
  - { offset: 0x847E, size: 0x8, addend: 0x0, symName: __ZNSt3__128__exception_guard_exceptionsINS_6vectorINS_12basic_stringIcNS_11char_traitsIcEENS_9allocatorIcEEEENS5_IS7_EEE16__destroy_vectorEEC1B8ne190104ESA_, symObjAddr: 0xBAC, symBinAddr: 0x100005C74, symSize: 0x34 }
  - { offset: 0x84B4, size: 0x8, addend: 0x0, symName: __ZNSt3__128__exception_guard_exceptionsINS_6vectorINS_12basic_stringIcNS_11char_traitsIcEENS_9allocatorIcEEEENS5_IS7_EEE16__destroy_vectorEEC2B8ne190104ESA_, symObjAddr: 0xBE0, symBinAddr: 0x100005CA8, symSize: 0x24 }
  - { offset: 0x84EA, size: 0x8, addend: 0x0, symName: __ZNSt3__16vectorINS_12basic_stringIcNS_11char_traitsIcEENS_9allocatorIcEEEENS4_IS6_EEE16__destroy_vectorC2B8ne190104ERS8_, symObjAddr: 0xC04, symBinAddr: 0x100005CCC, symSize: 0x20 }
  - { offset: 0x8521, size: 0x8, addend: 0x0, symName: __ZNKSt3__16vectorINS_12basic_stringIcNS_11char_traitsIcEENS_9allocatorIcEEEENS4_IS6_EEE8max_sizeEv, symObjAddr: 0xC24, symBinAddr: 0x100005CEC, symSize: 0x60 }
  - { offset: 0x8547, size: 0x8, addend: 0x0, symName: __ZNKSt3__16vectorINS_12basic_stringIcNS_11char_traitsIcEENS_9allocatorIcEEEENS4_IS6_EEE20__throw_length_errorB8ne190104Ev, symObjAddr: 0xC84, symBinAddr: 0x100005D4C, symSize: 0x1C }
  - { offset: 0x856B, size: 0x8, addend: 0x0, symName: __ZNSt3__16vectorINS_12basic_stringIcNS_11char_traitsIcEENS_9allocatorIcEEEENS4_IS6_EEE7__allocB8ne190104Ev, symObjAddr: 0xCE0, symBinAddr: 0x100005DA8, symSize: 0x28 }
  - { offset: 0x858F, size: 0x8, addend: 0x0, symName: __ZNSt3__16vectorINS_12basic_stringIcNS_11char_traitsIcEENS_9allocatorIcEEEENS4_IS6_EEE9__end_capB8ne190104Ev, symObjAddr: 0xD08, symBinAddr: 0x100005DD0, symSize: 0x28 }
  - { offset: 0x85B3, size: 0x8, addend: 0x0, symName: __ZNKSt3__16vectorINS_12basic_stringIcNS_11char_traitsIcEENS_9allocatorIcEEEENS4_IS6_EEE14__annotate_newB8ne190104Em, symObjAddr: 0xD30, symBinAddr: 0x100005DF8, symSize: 0x14 }
  - { offset: 0x85F0, size: 0x8, addend: 0x0, symName: __ZNSt3__116allocator_traitsINS_9allocatorINS_12basic_stringIcNS_11char_traitsIcEENS1_IcEEEEEEE8max_sizeB8ne190104IS7_TnNS_9enable_ifIXsr14__has_max_sizeIKT_EE5valueEiE4typeELi0EEEmRKS7_, symObjAddr: 0xD70, symBinAddr: 0x100005E38, symSize: 0x24 }
  - { offset: 0x8622, size: 0x8, addend: 0x0, symName: __ZNKSt3__16vectorINS_12basic_stringIcNS_11char_traitsIcEENS_9allocatorIcEEEENS4_IS6_EEE7__allocB8ne190104Ev, symObjAddr: 0xD94, symBinAddr: 0x100005E5C, symSize: 0x28 }
  - { offset: 0x8646, size: 0x8, addend: 0x0, symName: __ZNSt3__114numeric_limitsIlE3maxB8ne190104Ev, symObjAddr: 0xDBC, symBinAddr: 0x100005E84, symSize: 0x14 }
  - { offset: 0x866D, size: 0x8, addend: 0x0, symName: __ZNKSt3__16__lessIvvEclB8ne190104ImmEEbRKT_RKT0_, symObjAddr: 0xE34, symBinAddr: 0x100005EFC, symSize: 0x30 }
  - { offset: 0x86BF, size: 0x8, addend: 0x0, symName: __ZNKSt3__19allocatorINS_12basic_stringIcNS_11char_traitsIcEENS0_IcEEEEE8max_sizeB8ne190104Ev, symObjAddr: 0xE64, symBinAddr: 0x100005F2C, symSize: 0x18 }
  - { offset: 0x86E3, size: 0x8, addend: 0x0, symName: __ZNKSt3__117__compressed_pairIPNS_12basic_stringIcNS_11char_traitsIcEENS_9allocatorIcEEEENS4_IS6_EEE6secondB8ne190104Ev, symObjAddr: 0xE7C, symBinAddr: 0x100005F44, symSize: 0x24 }
  - { offset: 0x8707, size: 0x8, addend: 0x0, symName: __ZNKSt3__122__compressed_pair_elemINS_9allocatorINS_12basic_stringIcNS_11char_traitsIcEENS1_IcEEEEEELi1ELb1EE5__getB8ne190104Ev, symObjAddr: 0xEA0, symBinAddr: 0x100005F68, symSize: 0x14 }
  - { offset: 0x872C, size: 0x8, addend: 0x0, symName: __ZNSt3__123__libcpp_numeric_limitsIlLb1EE3maxB8ne190104Ev, symObjAddr: 0xEB4, symBinAddr: 0x100005F7C, symSize: 0x8 }
  - { offset: 0x873F, size: 0x8, addend: 0x0, symName: __ZNSt12length_errorC1B8ne190104EPKc, symObjAddr: 0xF20, symBinAddr: 0x100005FE8, symSize: 0x34 }
  - { offset: 0x8775, size: 0x8, addend: 0x0, symName: __ZNSt12length_errorC2B8ne190104EPKc, symObjAddr: 0xF54, symBinAddr: 0x10000601C, symSize: 0x44 }
  - { offset: 0x87AB, size: 0x8, addend: 0x0, symName: __ZNSt3__19allocatorINS_12basic_stringIcNS_11char_traitsIcEENS0_IcEEEEE8allocateB8ne190104Em, symObjAddr: 0xF98, symBinAddr: 0x100006060, symSize: 0x58 }
  - { offset: 0x87DD, size: 0x8, addend: 0x0, symName: __ZNSt3__117__compressed_pairIPNS_12basic_stringIcNS_11char_traitsIcEENS_9allocatorIcEEEENS4_IS6_EEE6secondB8ne190104Ev, symObjAddr: 0x1070, symBinAddr: 0x100006138, symSize: 0x24 }
  - { offset: 0x8801, size: 0x8, addend: 0x0, symName: __ZNSt3__122__compressed_pair_elemINS_9allocatorINS_12basic_stringIcNS_11char_traitsIcEENS1_IcEEEEEELi1ELb1EE5__getB8ne190104Ev, symObjAddr: 0x1094, symBinAddr: 0x10000615C, symSize: 0x14 }
  - { offset: 0x8825, size: 0x8, addend: 0x0, symName: __ZNSt3__117__compressed_pairIPNS_12basic_stringIcNS_11char_traitsIcEENS_9allocatorIcEEEENS4_IS6_EEE5firstB8ne190104Ev, symObjAddr: 0x10A8, symBinAddr: 0x100006170, symSize: 0x24 }
  - { offset: 0x8849, size: 0x8, addend: 0x0, symName: __ZNSt3__122__compressed_pair_elemIPNS_12basic_stringIcNS_11char_traitsIcEENS_9allocatorIcEEEELi0ELb0EE5__getB8ne190104Ev, symObjAddr: 0x10CC, symBinAddr: 0x100006194, symSize: 0x14 }
  - { offset: 0x8886, size: 0x8, addend: 0x0, symName: __ZNSt3__16vectorINS_12basic_stringIcNS_11char_traitsIcEENS_9allocatorIcEEEENS4_IS6_EEE21_ConstructTransactionC1B8ne190104ERS8_m, symObjAddr: 0x10E0, symBinAddr: 0x1000061A8, symSize: 0x3C }
  - { offset: 0x88CC, size: 0x8, addend: 0x0, symName: __ZNSt3__16vectorINS_12basic_stringIcNS_11char_traitsIcEENS_9allocatorIcEEEENS4_IS6_EEE21_ConstructTransactionD1B8ne190104Ev, symObjAddr: 0x119C, symBinAddr: 0x100006264, symSize: 0x2C }
  - { offset: 0x88F4, size: 0x8, addend: 0x0, symName: __ZNSt3__16vectorINS_12basic_stringIcNS_11char_traitsIcEENS_9allocatorIcEEEENS4_IS6_EEE21_ConstructTransactionC2B8ne190104ERS8_m, symObjAddr: 0x11C8, symBinAddr: 0x100006290, symSize: 0x4C }
  - { offset: 0x8958, size: 0x8, addend: 0x0, symName: __ZNSt3__14pairIPKNS_12basic_stringIcNS_11char_traitsIcEENS_9allocatorIcEEEES8_EC1B8ne190104IS8_S8_TnNS_9enable_ifIXclsr10_CheckArgsE23__is_pair_constructibleIT_T0_EEEiE4typeELi0EEEOSC_OSD_, symObjAddr: 0x1420, symBinAddr: 0x1000064E8, symSize: 0x3C }
  - { offset: 0x89B4, size: 0x8, addend: 0x0, symName: __ZNSt3__14pairIPKNS_12basic_stringIcNS_11char_traitsIcEENS_9allocatorIcEEEES8_EC2B8ne190104IS8_S8_TnNS_9enable_ifIXclsr10_CheckArgsE23__is_pair_constructibleIT_T0_EEEiE4typeELi0EEEOSC_OSD_, symObjAddr: 0x145C, symBinAddr: 0x100006524, symSize: 0x34 }
  - { offset: 0x8A10, size: 0x8, addend: 0x0, symName: __ZNSt3__118__unwrap_iter_implIPKNS_12basic_stringIcNS_11char_traitsIcEENS_9allocatorIcEEEELb1EE8__unwrapB8ne190104ES8_, symObjAddr: 0x1490, symBinAddr: 0x100006558, symSize: 0x24 }
  - { offset: 0x8A32, size: 0x8, addend: 0x0, symName: __ZNSt3__129_AllocatorDestroyRangeReverseINS_9allocatorINS_12basic_stringIcNS_11char_traitsIcEENS1_IcEEEEEEPS6_EC1B8ne190104ERS7_RS8_SB_, symObjAddr: 0x1514, symBinAddr: 0x1000065DC, symSize: 0x44 }
  - { offset: 0x8A87, size: 0x8, addend: 0x0, symName: __ZNSt3__116allocator_traitsINS_9allocatorINS_12basic_stringIcNS_11char_traitsIcEENS1_IcEEEEEEE9constructB8ne190104IS6_JRKS6_ETnNS_9enable_ifIXsr15__has_constructIS7_PT_DpT0_EE5valueEiE4typeELi0EEEvRS7_SE_DpOSF_, symObjAddr: 0x1558, symBinAddr: 0x100006620, symSize: 0x34 }
  - { offset: 0x8AE2, size: 0x8, addend: 0x0, symName: __ZNSt3__128__exception_guard_exceptionsINS_29_AllocatorDestroyRangeReverseINS_9allocatorINS_12basic_stringIcNS_11char_traitsIcEENS2_IcEEEEEEPS7_EEE10__completeB8ne190104Ev, symObjAddr: 0x15A0, symBinAddr: 0x100006668, symSize: 0x1C }
  - { offset: 0x8B06, size: 0x8, addend: 0x0, symName: __ZNSt3__128__exception_guard_exceptionsINS_29_AllocatorDestroyRangeReverseINS_9allocatorINS_12basic_stringIcNS_11char_traitsIcEENS2_IcEEEEEEPS7_EEED1B8ne190104Ev, symObjAddr: 0x15BC, symBinAddr: 0x100006684, symSize: 0x2C }
  - { offset: 0x8B2E, size: 0x8, addend: 0x0, symName: __ZNSt3__128__exception_guard_exceptionsINS_29_AllocatorDestroyRangeReverseINS_9allocatorINS_12basic_stringIcNS_11char_traitsIcEENS2_IcEEEEEEPS7_EEEC1B8ne190104ESA_, symObjAddr: 0x15E8, symBinAddr: 0x1000066B0, symSize: 0x34 }
  - { offset: 0x8B65, size: 0x8, addend: 0x0, symName: __ZNSt3__128__exception_guard_exceptionsINS_29_AllocatorDestroyRangeReverseINS_9allocatorINS_12basic_stringIcNS_11char_traitsIcEENS2_IcEEEEEEPS7_EEEC2B8ne190104ESA_, symObjAddr: 0x161C, symBinAddr: 0x1000066E4, symSize: 0x30 }
  - { offset: 0x8B9C, size: 0x8, addend: 0x0, symName: __ZNSt3__129_AllocatorDestroyRangeReverseINS_9allocatorINS_12basic_stringIcNS_11char_traitsIcEENS1_IcEEEEEEPS6_EC2B8ne190104ERS7_RS8_SB_, symObjAddr: 0x164C, symBinAddr: 0x100006714, symSize: 0x38 }
  - { offset: 0x8BF1, size: 0x8, addend: 0x0, symName: __ZNSt3__19allocatorINS_12basic_stringIcNS_11char_traitsIcEENS0_IcEEEEE9constructB8ne190104IS5_JRKS5_EEEvPT_DpOT0_, symObjAddr: 0x1684, symBinAddr: 0x10000674C, symSize: 0x30 }
  - { offset: 0x8C45, size: 0x8, addend: 0x0, symName: __ZNSt3__128__exception_guard_exceptionsINS_29_AllocatorDestroyRangeReverseINS_9allocatorINS_12basic_stringIcNS_11char_traitsIcEENS2_IcEEEEEEPS7_EEED2B8ne190104Ev, symObjAddr: 0x16B4, symBinAddr: 0x10000677C, symSize: 0x50 }
  - { offset: 0x8C6D, size: 0x8, addend: 0x0, symName: __ZNKSt3__129_AllocatorDestroyRangeReverseINS_9allocatorINS_12basic_stringIcNS_11char_traitsIcEENS1_IcEEEEEEPS6_EclB8ne190104Ev, symObjAddr: 0x1704, symBinAddr: 0x1000067CC, symSize: 0x68 }
  - { offset: 0x8C91, size: 0x8, addend: 0x0, symName: __ZNSt3__116reverse_iteratorIPNS_12basic_stringIcNS_11char_traitsIcEENS_9allocatorIcEEEEEC1B8ne190104ES7_, symObjAddr: 0x17DC, symBinAddr: 0x1000068A4, symSize: 0x34 }
  - { offset: 0x8CC7, size: 0x8, addend: 0x0, symName: __ZNSt3__116allocator_traitsINS_9allocatorINS_12basic_stringIcNS_11char_traitsIcEENS1_IcEEEEEEE7destroyB8ne190104IS6_TnNS_9enable_ifIXsr13__has_destroyIS7_PT_EE5valueEiE4typeELi0EEEvRS7_SC_, symObjAddr: 0x1854, symBinAddr: 0x10000691C, symSize: 0x2C }
  - { offset: 0x8D08, size: 0x8, addend: 0x0, symName: __ZNSt3__116reverse_iteratorIPNS_12basic_stringIcNS_11char_traitsIcEENS_9allocatorIcEEEEEppB8ne190104Ev, symObjAddr: 0x18A4, symBinAddr: 0x10000696C, symSize: 0x20 }
  - { offset: 0x8D2C, size: 0x8, addend: 0x0, symName: __ZNKSt3__116reverse_iteratorIPNS_12basic_stringIcNS_11char_traitsIcEENS_9allocatorIcEEEEE4baseB8ne190104Ev, symObjAddr: 0x18C4, symBinAddr: 0x10000698C, symSize: 0x18 }
  - { offset: 0x8D50, size: 0x8, addend: 0x0, symName: __ZNSt3__19allocatorINS_12basic_stringIcNS_11char_traitsIcEENS0_IcEEEEE7destroyB8ne190104EPS5_, symObjAddr: 0x18DC, symBinAddr: 0x1000069A4, symSize: 0x28 }
  - { offset: 0x8D87, size: 0x8, addend: 0x0, symName: __ZNSt3__119__to_address_helperINS_16reverse_iteratorIPNS_12basic_stringIcNS_11char_traitsIcEENS_9allocatorIcEEEEEEvE6__callB8ne190104ERKS9_, symObjAddr: 0x1904, symBinAddr: 0x1000069CC, symSize: 0x38 }
  - { offset: 0x8DA9, size: 0x8, addend: 0x0, symName: __ZNKSt3__116reverse_iteratorIPNS_12basic_stringIcNS_11char_traitsIcEENS_9allocatorIcEEEEEptB8ne190104Ev, symObjAddr: 0x193C, symBinAddr: 0x100006A04, symSize: 0x24 }
  - { offset: 0x8DCD, size: 0x8, addend: 0x0, symName: __ZNKSt3__116reverse_iteratorIPNS_12basic_stringIcNS_11char_traitsIcEENS_9allocatorIcEEEEEdeB8ne190104Ev, symObjAddr: 0x1960, symBinAddr: 0x100006A28, symSize: 0x28 }
  - { offset: 0x8DFF, size: 0x8, addend: 0x0, symName: __ZNSt3__116reverse_iteratorIPNS_12basic_stringIcNS_11char_traitsIcEENS_9allocatorIcEEEEEC2B8ne190104ES7_, symObjAddr: 0x1988, symBinAddr: 0x100006A50, symSize: 0x28 }
  - { offset: 0x8E35, size: 0x8, addend: 0x0, symName: __ZNSt3__118__unwrap_iter_implIPNS_12basic_stringIcNS_11char_traitsIcEENS_9allocatorIcEEEELb1EE8__unwrapB8ne190104ES7_, symObjAddr: 0x19B0, symBinAddr: 0x100006A78, symSize: 0x24 }
  - { offset: 0x8E57, size: 0x8, addend: 0x0, symName: __ZNSt3__118__unwrap_iter_implIPNS_12basic_stringIcNS_11char_traitsIcEENS_9allocatorIcEEEELb1EE8__rewrapB8ne190104ES7_S7_, symObjAddr: 0x19D4, symBinAddr: 0x100006A9C, symSize: 0x58 }
  - { offset: 0x8E87, size: 0x8, addend: 0x0, symName: __ZNSt3__16vectorINS_12basic_stringIcNS_11char_traitsIcEENS_9allocatorIcEEEENS4_IS6_EEE21_ConstructTransactionD2B8ne190104Ev, symObjAddr: 0x1A2C, symBinAddr: 0x100006AF4, symSize: 0x20 }
  - { offset: 0x8EAF, size: 0x8, addend: 0x0, symName: __ZNSt3__128__exception_guard_exceptionsINS_6vectorINS_12basic_stringIcNS_11char_traitsIcEENS_9allocatorIcEEEENS5_IS7_EEE16__destroy_vectorEED2B8ne190104Ev, symObjAddr: 0x1A4C, symBinAddr: 0x100006B14, symSize: 0x50 }
  - { offset: 0x8ED7, size: 0x8, addend: 0x0, symName: __ZNSt3__16vectorINS_12basic_stringIcNS_11char_traitsIcEENS_9allocatorIcEEEENS4_IS6_EEE16__destroy_vectorclB8ne190104Ev, symObjAddr: 0x1A9C, symBinAddr: 0x100006B64, symSize: 0x88 }
  - { offset: 0x8EFB, size: 0x8, addend: 0x0, symName: __ZNSt3__16vectorINS_12basic_stringIcNS_11char_traitsIcEENS_9allocatorIcEEEENS4_IS6_EEE7__clearB8ne190104Ev, symObjAddr: 0x1B24, symBinAddr: 0x100006BEC, symSize: 0x28 }
  - { offset: 0x8F1F, size: 0x8, addend: 0x0, symName: __ZNKSt3__16vectorINS_12basic_stringIcNS_11char_traitsIcEENS_9allocatorIcEEEENS4_IS6_EEE17__annotate_deleteB8ne190104Ev, symObjAddr: 0x1B4C, symBinAddr: 0x100006C14, symSize: 0x10 }
  - { offset: 0x8F43, size: 0x8, addend: 0x0, symName: __ZNSt3__116allocator_traitsINS_9allocatorINS_12basic_stringIcNS_11char_traitsIcEENS1_IcEEEEEEE10deallocateB8ne190104ERS7_PS6_m, symObjAddr: 0x1B5C, symBinAddr: 0x100006C24, symSize: 0x34 }
  - { offset: 0x8F84, size: 0x8, addend: 0x0, symName: __ZNKSt3__16vectorINS_12basic_stringIcNS_11char_traitsIcEENS_9allocatorIcEEEENS4_IS6_EEE8capacityB8ne190104Ev, symObjAddr: 0x1B90, symBinAddr: 0x100006C58, symSize: 0x40 }
  - { offset: 0x8FA8, size: 0x8, addend: 0x0, symName: __ZNSt3__16vectorINS_12basic_stringIcNS_11char_traitsIcEENS_9allocatorIcEEEENS4_IS6_EEE22__base_destruct_at_endB8ne190104EPS6_, symObjAddr: 0x1BD0, symBinAddr: 0x100006C98, symSize: 0x88 }
  - { offset: 0x8FEA, size: 0x8, addend: 0x0, symName: __ZNSt3__19allocatorINS_12basic_stringIcNS_11char_traitsIcEENS0_IcEEEEE10deallocateB8ne190104EPS5_m, symObjAddr: 0x1C58, symBinAddr: 0x100006D20, symSize: 0x44 }
  - { offset: 0x902A, size: 0x8, addend: 0x0, symName: __ZNKSt3__16vectorINS_12basic_stringIcNS_11char_traitsIcEENS_9allocatorIcEEEENS4_IS6_EEE9__end_capB8ne190104Ev, symObjAddr: 0x1D24, symBinAddr: 0x100006DEC, symSize: 0x28 }
  - { offset: 0x904E, size: 0x8, addend: 0x0, symName: __ZNKSt3__117__compressed_pairIPNS_12basic_stringIcNS_11char_traitsIcEENS_9allocatorIcEEEENS4_IS6_EEE5firstB8ne190104Ev, symObjAddr: 0x1D4C, symBinAddr: 0x100006E14, symSize: 0x24 }
  - { offset: 0x9072, size: 0x8, addend: 0x0, symName: __ZNKSt3__122__compressed_pair_elemIPNS_12basic_stringIcNS_11char_traitsIcEENS_9allocatorIcEEEELi0ELb0EE5__getB8ne190104Ev, symObjAddr: 0x1D70, symBinAddr: 0x100006E38, symSize: 0x14 }
  - { offset: 0x9096, size: 0x8, addend: 0x0, symName: __ZNSt3__16vectorINS_12basic_stringIcNS_11char_traitsIcEENS_9allocatorIcEEEENS4_IS6_EEED2B8ne190104Ev, symObjAddr: 0x1D84, symBinAddr: 0x100006E4C, symSize: 0x40 }
  - { offset: 0x90BE, size: 0x8, addend: 0x0, symName: __ZNSt3__16vectorINS_12basic_stringIcNS_11char_traitsIcEENS_9allocatorIcEEEENS4_IS6_EEE11__make_iterB8ne190104EPS6_, symObjAddr: 0x1DC4, symBinAddr: 0x100006E8C, symSize: 0x30 }
  - { offset: 0x90F1, size: 0x8, addend: 0x0, symName: __ZNSt3__111__wrap_iterIPNS_12basic_stringIcNS_11char_traitsIcEENS_9allocatorIcEEEEEC1B8ne190104ES7_, symObjAddr: 0x1DF4, symBinAddr: 0x100006EBC, symSize: 0x34 }
  - { offset: 0x9127, size: 0x8, addend: 0x0, symName: __ZNSt3__111__wrap_iterIPNS_12basic_stringIcNS_11char_traitsIcEENS_9allocatorIcEEEEEC2B8ne190104ES7_, symObjAddr: 0x1E28, symBinAddr: 0x100006EF0, symSize: 0x20 }
  - { offset: 0x915D, size: 0x8, addend: 0x0, symName: __ZNKSt3__112basic_stringIcNS_11char_traitsIcEENS_9allocatorIcEEE4dataB8ne190104Ev, symObjAddr: 0x202C, symBinAddr: 0x1000070F4, symSize: 0x28 }
  - { offset: 0x9181, size: 0x8, addend: 0x0, symName: __ZNKSt3__112basic_stringIcNS_11char_traitsIcEENS_9allocatorIcEEE4sizeB8ne190104Ev, symObjAddr: 0x2054, symBinAddr: 0x10000711C, symSize: 0x54 }
  - { offset: 0x91C3, size: 0x8, addend: 0x0, symName: __ZNKSt3__113basic_ostreamIcNS_11char_traitsIcEEE6sentrycvbB8ne190104Ev, symObjAddr: 0x20A8, symBinAddr: 0x100007170, symSize: 0x1C }
  - { offset: 0x91E7, size: 0x8, addend: 0x0, symName: __ZNSt3__119ostreambuf_iteratorIcNS_11char_traitsIcEEEC1B8ne190104ERNS_13basic_ostreamIcS2_EE, symObjAddr: 0x22D8, symBinAddr: 0x1000073A0, symSize: 0x34 }
  - { offset: 0x921E, size: 0x8, addend: 0x0, symName: __ZNKSt3__18ios_base5flagsB8ne190104Ev, symObjAddr: 0x230C, symBinAddr: 0x1000073D4, symSize: 0x18 }
  - { offset: 0x9244, size: 0x8, addend: 0x0, symName: __ZNKSt3__19basic_iosIcNS_11char_traitsIcEEE4fillB8ne190104Ev, symObjAddr: 0x2324, symBinAddr: 0x1000073EC, symSize: 0x64 }
  - { offset: 0x9268, size: 0x8, addend: 0x0, symName: __ZNKSt3__119ostreambuf_iteratorIcNS_11char_traitsIcEEE6failedB8ne190104Ev, symObjAddr: 0x2388, symBinAddr: 0x100007450, symSize: 0x20 }
  - { offset: 0x928C, size: 0x8, addend: 0x0, symName: __ZNSt3__19basic_iosIcNS_11char_traitsIcEEE8setstateB8ne190104Ej, symObjAddr: 0x23A8, symBinAddr: 0x100007470, symSize: 0x2C }
  - { offset: 0x92C0, size: 0x8, addend: 0x0, symName: __ZNKSt3__18ios_base5widthB8ne190104Ev, symObjAddr: 0x23D4, symBinAddr: 0x10000749C, symSize: 0x18 }
  - { offset: 0x92E6, size: 0x8, addend: 0x0, symName: __ZNSt3__115basic_streambufIcNS_11char_traitsIcEEE5sputnB8ne190104EPKcl, symObjAddr: 0x23EC, symBinAddr: 0x1000074B4, symSize: 0x3C }
  - { offset: 0x9326, size: 0x8, addend: 0x0, symName: __ZNSt3__112basic_stringIcNS_11char_traitsIcEENS_9allocatorIcEEEC1B8ne190104Emc, symObjAddr: 0x2428, symBinAddr: 0x1000074F0, symSize: 0x3C }
  - { offset: 0x936D, size: 0x8, addend: 0x0, symName: __ZNSt3__18ios_base5widthB8ne190104El, symObjAddr: 0x2464, symBinAddr: 0x10000752C, symSize: 0x2C }
  - { offset: 0x93B1, size: 0x8, addend: 0x0, symName: __ZNSt3__112basic_stringIcNS_11char_traitsIcEENS_9allocatorIcEEEC2B8ne190104Emc, symObjAddr: 0x2490, symBinAddr: 0x100007558, symSize: 0x4C }
  - { offset: 0x93F7, size: 0x8, addend: 0x0, symName: __ZNSt3__119ostreambuf_iteratorIcNS_11char_traitsIcEEEC2B8ne190104ERNS_13basic_ostreamIcS2_EE, symObjAddr: 0x24DC, symBinAddr: 0x1000075A4, symSize: 0x54 }
  - { offset: 0x942D, size: 0x8, addend: 0x0, symName: __ZNKSt3__19basic_iosIcNS_11char_traitsIcEEE5rdbufB8ne190104Ev, symObjAddr: 0x2530, symBinAddr: 0x1000075F8, symSize: 0x24 }
  - { offset: 0x9451, size: 0x8, addend: 0x0, symName: __ZNKSt3__18ios_base5rdbufB8ne190104Ev, symObjAddr: 0x2554, symBinAddr: 0x10000761C, symSize: 0x18 }
  - { offset: 0x9475, size: 0x8, addend: 0x0, symName: __ZNKSt3__118_SentinelValueFillINS_11char_traitsIcEEE8__is_setB8ne190104Ev, symObjAddr: 0x256C, symBinAddr: 0x100007634, symSize: 0x38 }
  - { offset: 0x9499, size: 0x8, addend: 0x0, symName: __ZNKSt3__19basic_iosIcNS_11char_traitsIcEEE5widenB8ne190104Ec, symObjAddr: 0x25A4, symBinAddr: 0x10000766C, symSize: 0x80 }
  - { offset: 0x94CC, size: 0x8, addend: 0x0, symName: __ZNSt3__118_SentinelValueFillINS_11char_traitsIcEEEaSB8ne190104Ei, symObjAddr: 0x2624, symBinAddr: 0x1000076EC, symSize: 0x20 }
  - { offset: 0x94FF, size: 0x8, addend: 0x0, symName: __ZNKSt3__118_SentinelValueFillINS_11char_traitsIcEEE5__getB8ne190104Ev, symObjAddr: 0x2644, symBinAddr: 0x10000770C, symSize: 0x18 }
  - { offset: 0x9524, size: 0x8, addend: 0x0, symName: __ZNSt3__111char_traitsIcE3eofB8ne190104Ev, symObjAddr: 0x265C, symBinAddr: 0x100007724, symSize: 0x8 }
  - { offset: 0x9579, size: 0x8, addend: 0x0, symName: __ZNKSt3__15ctypeIcE5widenB8ne190104Ec, symObjAddr: 0x2690, symBinAddr: 0x100007758, symSize: 0x34 }
  - { offset: 0x95AC, size: 0x8, addend: 0x0, symName: __ZNSt3__18ios_base8setstateB8ne190104Ej, symObjAddr: 0x26C4, symBinAddr: 0x10000778C, symSize: 0x34 }
  - { offset: 0x95E1, size: 0x8, addend: 0x0, symName: __ZNKSt3__112basic_stringIcNS_11char_traitsIcEENS_9allocatorIcEEE13__get_pointerB8ne190104Ev, symObjAddr: 0x270C, symBinAddr: 0x1000077D4, symSize: 0x54 }
  - { offset: 0x9605, size: 0x8, addend: 0x0, symName: __ZNKSt3__112basic_stringIcNS_11char_traitsIcEENS_9allocatorIcEEE9__is_longB8ne190104Ev, symObjAddr: 0x2760, symBinAddr: 0x100007828, symSize: 0x34 }
  - { offset: 0x9629, size: 0x8, addend: 0x0, symName: __ZNKSt3__112basic_stringIcNS_11char_traitsIcEENS_9allocatorIcEEE18__get_long_pointerB8ne190104Ev, symObjAddr: 0x2794, symBinAddr: 0x10000785C, symSize: 0x28 }
  - { offset: 0x964D, size: 0x8, addend: 0x0, symName: __ZNKSt3__112basic_stringIcNS_11char_traitsIcEENS_9allocatorIcEEE19__get_short_pointerB8ne190104Ev, symObjAddr: 0x27BC, symBinAddr: 0x100007884, symSize: 0x28 }
  - { offset: 0x9671, size: 0x8, addend: 0x0, symName: __ZNKSt3__117__compressed_pairINS_12basic_stringIcNS_11char_traitsIcEENS_9allocatorIcEEE5__repES5_E5firstB8ne190104Ev, symObjAddr: 0x27E4, symBinAddr: 0x1000078AC, symSize: 0x24 }
  - { offset: 0x9695, size: 0x8, addend: 0x0, symName: __ZNKSt3__122__compressed_pair_elemINS_12basic_stringIcNS_11char_traitsIcEENS_9allocatorIcEEE5__repELi0ELb0EE5__getB8ne190104Ev, symObjAddr: 0x2808, symBinAddr: 0x1000078D0, symSize: 0x14 }
  - { offset: 0x96BA, size: 0x8, addend: 0x0, symName: __ZNSt3__114pointer_traitsIPKcE10pointer_toB8ne190104ERS1_, symObjAddr: 0x281C, symBinAddr: 0x1000078E4, symSize: 0x14 }
  - { offset: 0x96DC, size: 0x8, addend: 0x0, symName: __ZNKSt3__112basic_stringIcNS_11char_traitsIcEENS_9allocatorIcEEE15__get_long_sizeB8ne190104Ev, symObjAddr: 0x2830, symBinAddr: 0x1000078F8, symSize: 0x28 }
  - { offset: 0x9700, size: 0x8, addend: 0x0, symName: __ZNKSt3__112basic_stringIcNS_11char_traitsIcEENS_9allocatorIcEEE16__get_short_sizeB8ne190104Ev, symObjAddr: 0x2858, symBinAddr: 0x100007920, symSize: 0x34 }
...
